target datalayout = "e-m:e-p270:32:32-p271:32:32-p272:64:64-i64:64-i128:128-f80:128-n8:16:32:64-S128"
target triple = "x86_64-pc-linux-gnu"

%struct.archive_wstring = type { ptr, i64, i64 }

; Function Attrs: nounwind uwtable
define internal i32 @lha_parse_linkname(ptr noundef %0, ptr noundef %1) #0 {
  %3 = alloca i32, align 4
  %4 = alloca ptr, align 8
  %5 = alloca ptr, align 8
  %6 = alloca ptr, align 8
  %7 = alloca i64, align 8
  %8 = alloca i32, align 4
  store ptr %0, ptr %4, align 8, !tbaa !115
  store ptr %1, ptr %5, align 8, !tbaa !115
  call void @llvm.lifetime.start.p0(i64 8, ptr %6) #11
  call void @llvm.lifetime.start.p0(i64 8, ptr %7) #11
  %9 = load ptr, ptr %5, align 8, !tbaa !115
  %10 = getelementptr inbounds nuw %struct.archive_wstring, ptr %9, i32 0, i32 0
  %11 = load ptr, ptr %10, align 8, !tbaa !80
  %12 = call ptr @wcschr(ptr noundef %11, i32 noundef 124) #13
  store ptr %12, ptr %6, align 8, !tbaa !117
  %13 = load ptr, ptr %6, align 8, !tbaa !117
  %14 = icmp ne ptr %13, null
  br i1 %14, label %15, label %33

15:                                               ; preds = %2
  %16 = load ptr, ptr %6, align 8, !tbaa !117
  %17 = getelementptr inbounds i32, ptr %16, i64 1
  %18 = call i64 @wcslen(ptr noundef %17) #13
  store i64 %18, ptr %7, align 8, !tbaa !30
  %19 = load ptr, ptr %4, align 8, !tbaa !115
  %20 = getelementptr inbounds nuw %struct.archive_wstring, ptr %19, i32 0, i32 1
  store i64 0, ptr %20, align 8, !tbaa !81
  %21 = load ptr, ptr %4, align 8, !tbaa !115
  %22 = load ptr, ptr %6, align 8, !tbaa !117
  %23 = getelementptr inbounds i32, ptr %22, i64 1
  %24 = load i64, ptr %7, align 8, !tbaa !30
  %25 = call ptr @archive_wstrncat(ptr noundef %21, ptr noundef %23, i64 noundef %24)
  %26 = load ptr, ptr %6, align 8, !tbaa !117
  store i32 0, ptr %26, align 4, !tbaa !11
  %27 = load ptr, ptr %5, align 8, !tbaa !115
  %28 = getelementptr inbounds nuw %struct.archive_wstring, ptr %27, i32 0, i32 0
  %29 = load ptr, ptr %28, align 8, !tbaa !80
  %30 = call i64 @wcslen(ptr noundef %29) #13
  %31 = load ptr, ptr %5, align 8, !tbaa !115
  %32 = getelementptr inbounds nuw %struct.archive_wstring, ptr %31, i32 0, i32 1
  store i64 %30, ptr %32, align 8, !tbaa !81
  store i32 1, ptr %3, align 4
  store i32 1, ptr %8, align 4
  br label %34

33:                                               ; preds = %2
  store i32 0, ptr %3, align 4
  store i32 1, ptr %8, align 4
  br label %34

34:                                               ; preds = %33, %15
  call void @llvm.lifetime.end.p0(i64 8, ptr %7) #11
  call void @llvm.lifetime.end.p0(i64 8, ptr %6) #11
  %35 = load i32, ptr %3, align 4
  ret i32 %35
}