; Function Attrs: nounwind uwtable
define internal fastcc range(i32 0, 2) i32 @lha_parse_linkname(ptr noundef nonnull %0, ptr noundef nonnull captures(none) %1) unnamed_addr #0 {
  %3 = load ptr, ptr %1, align 8, !tbaa !89
  %4 = tail call ptr @wcschr(ptr noundef %3, i32 noundef 124) #20
  %.not = icmp eq ptr %4, null
  br i1 %.not, label %13, label %5

5:                                                ; preds = %2
  %6 = getelementptr inbounds nuw i8, ptr %4, i64 4
  %7 = tail call i64 @wcslen(ptr noundef nonnull %6) #20
  %8 = getelementptr inbounds nuw i8, ptr %0, i64 8
  store i64 0, ptr %8, align 8, !tbaa !82
  %9 = tail call ptr @archive_wstrncat(ptr noundef nonnull %0, ptr noundef nonnull %6, i64 noundef %7) #18
  store i32 0, ptr %4, align 4, !tbaa !154
  %10 = load ptr, ptr %1, align 8, !tbaa !89
  %11 = tail call i64 @wcslen(ptr noundef %10) #20
  %12 = getelementptr inbounds nuw i8, ptr %1, i64 8
  store i64 %11, ptr %12, align 8, !tbaa !82
  br label %13

13:                                               ; preds = %2, %5
  %.0 = phi i32 [ 1, %5 ], [ 0, %2 ]
  ret i32 %.0
}